target datalayout = "e-m:e-p270:32:32-p271:32:32-p272:64:64-i64:64-i128:128-f80:128-n8:16:32:64-S128"
target triple = "x86_64-pc-linux-gnu"

%"class.std::__cxx11::basic_string" = type { %"struct.std::__cxx11::basic_string<char>::_Alloc_hider", i64, %union.anon.15 }
%"struct.std::__cxx11::basic_string<char>::_Alloc_hider" = type { ptr }
%union.anon.15 = type { i64, [8 x i8] }
%"struct.OpenImageIO::v3_1_0::TypeDesc" = type { i8, i8, i8, i8, i32 }
%"class.OpenImageIO::v3_1_0::TIFFInput" = type { %"class.OpenImageIO::v3_1_0::ImageInput", ptr, %"class.std::__cxx11::basic_string", %"class.std::vector.16", %"class.std::vector.16", i32, i32, i8, i8, i8, i8, i8, i8, i8, i8, i8, i32, i16, i16, i16, i16, i16, i16, %"class.std::vector.21", %"class.std::vector.26", %"class.std::vector.31" }
%"class.OpenImageIO::v3_1_0::ImageInput" = type { ptr, %"class.OpenImageIO::v3_1_0::ImageSpec", %"class.std::unique_ptr" }
%"class.OpenImageIO::v3_1_0::ImageSpec" = type { i32, i32, i32, i32, i32, i32, i32, i32, i32, i32, i32, i32, i32, i32, i32, i32, %"struct.OpenImageIO::v3_1_0::TypeDesc", %"class.std::vector", %"class.std::vector.0", i32, i32, i8, %"class.OpenImageIO::v3_1_0::ParamValueList" }
%"class.std::vector" = type { %"struct.std::_Vector_base" }
%"struct.std::_Vector_base" = type { %"struct.std::_Vector_base<OpenImageIO::v3_1_0::TypeDesc, std::allocator<OpenImageIO::v3_1_0::TypeDesc>>::_Vector_impl" }
%"struct.std::_Vector_base<OpenImageIO::v3_1_0::TypeDesc, std::allocator<OpenImageIO::v3_1_0::TypeDesc>>::_Vector_impl" = type { %"struct.std::_Vector_base<OpenImageIO::v3_1_0::TypeDesc, std::allocator<OpenImageIO::v3_1_0::TypeDesc>>::_Vector_impl_data" }
%"struct.std::_Vector_base<OpenImageIO::v3_1_0::TypeDesc, std::allocator<OpenImageIO::v3_1_0::TypeDesc>>::_Vector_impl_data" = type { ptr, ptr, ptr }
%"class.std::vector.0" = type { %"struct.std::_Vector_base.1" }
%"struct.std::_Vector_base.1" = type { %"struct.std::_Vector_base<std::__cxx11::basic_string<char>, std::allocator<std::__cxx11::basic_string<char>>>::_Vector_impl" }
%"struct.std::_Vector_base<std::__cxx11::basic_string<char>, std::allocator<std::__cxx11::basic_string<char>>>::_Vector_impl" = type { %"struct.std::_Vector_base<std::__cxx11::basic_string<char>, std::allocator<std::__cxx11::basic_string<char>>>::_Vector_impl_data" }
%"struct.std::_Vector_base<std::__cxx11::basic_string<char>, std::allocator<std::__cxx11::basic_string<char>>>::_Vector_impl_data" = type { ptr, ptr, ptr }
%"class.OpenImageIO::v3_1_0::ParamValueList" = type { %"class.std::vector.5" }
%"class.std::vector.5" = type { %"struct.std::_Vector_base.6" }
%"struct.std::_Vector_base.6" = type { %"struct.std::_Vector_base<OpenImageIO::v3_1_0::ParamValue, std::allocator<OpenImageIO::v3_1_0::ParamValue>>::_Vector_impl" }
%"struct.std::_Vector_base<OpenImageIO::v3_1_0::ParamValue, std::allocator<OpenImageIO::v3_1_0::ParamValue>>::_Vector_impl" = type { %"struct.std::_Vector_base<OpenImageIO::v3_1_0::ParamValue, std::allocator<OpenImageIO::v3_1_0::ParamValue>>::_Vector_impl_data" }
%"struct.std::_Vector_base<OpenImageIO::v3_1_0::ParamValue, std::allocator<OpenImageIO::v3_1_0::ParamValue>>::_Vector_impl_data" = type { ptr, ptr, ptr }
%"class.std::unique_ptr" = type { %"struct.std::__uniq_ptr_data" }
%"struct.std::__uniq_ptr_data" = type { %"class.std::__uniq_ptr_impl" }
%"class.std::__uniq_ptr_impl" = type { %"class.std::tuple" }
%"class.std::tuple" = type { %"struct.std::_Tuple_impl" }
%"struct.std::_Tuple_impl" = type { %"struct.std::_Tuple_impl.10", %"struct.std::_Head_base.11" }
%"struct.std::_Tuple_impl.10" = type { %"struct.std::_Head_base" }
%"struct.std::_Head_base" = type { ptr }
%"struct.std::_Head_base.11" = type { ptr }
%"class.std::vector.16" = type { %"struct.std::_Vector_base.17" }
%"struct.std::_Vector_base.17" = type { %"struct.std::_Vector_base<unsigned char, std::allocator<unsigned char>>::_Vector_impl" }
%"struct.std::_Vector_base<unsigned char, std::allocator<unsigned char>>::_Vector_impl" = type { %"struct.std::_Vector_base<unsigned char, std::allocator<unsigned char>>::_Vector_impl_data" }
%"struct.std::_Vector_base<unsigned char, std::allocator<unsigned char>>::_Vector_impl_data" = type { ptr, ptr, ptr }
%"class.std::vector.21" = type { %"struct.std::_Vector_base.22" }
%"struct.std::_Vector_base.22" = type { %"struct.std::_Vector_base<unsigned short, std::allocator<unsigned short>>::_Vector_impl" }
%"struct.std::_Vector_base<unsigned short, std::allocator<unsigned short>>::_Vector_impl" = type { %"struct.std::_Vector_base<unsigned short, std::allocator<unsigned short>>::_Vector_impl_data" }
%"struct.std::_Vector_base<unsigned short, std::allocator<unsigned short>>::_Vector_impl_data" = type { ptr, ptr, ptr }
%"class.std::vector.26" = type { %"struct.std::_Vector_base.27" }
%"struct.std::_Vector_base.27" = type { %"struct.std::_Vector_base<unsigned int, std::allocator<unsigned int>>::_Vector_impl" }
%"struct.std::_Vector_base<unsigned int, std::allocator<unsigned int>>::_Vector_impl" = type { %"struct.std::_Vector_base<unsigned int, std::allocator<unsigned int>>::_Vector_impl_data" }
%"struct.std::_Vector_base<unsigned int, std::allocator<unsigned int>>::_Vector_impl_data" = type { ptr, ptr, ptr }
%"class.std::vector.31" = type { %"struct.std::_Vector_base.32" }
%"struct.std::_Vector_base.32" = type { %"struct.std::_Vector_base<OpenImageIO::v3_1_0::ImageSpec, std::allocator<OpenImageIO::v3_1_0::ImageSpec>>::_Vector_impl" }
%"struct.std::_Vector_base<OpenImageIO::v3_1_0::ImageSpec, std::allocator<OpenImageIO::v3_1_0::ImageSpec>>::_Vector_impl" = type { %"struct.std::_Vector_base<OpenImageIO::v3_1_0::ImageSpec, std::allocator<OpenImageIO::v3_1_0::ImageSpec>>::_Vector_impl_data" }
%"struct.std::_Vector_base<OpenImageIO::v3_1_0::ImageSpec, std::allocator<OpenImageIO::v3_1_0::ImageSpec>>::_Vector_impl_data" = type { ptr, ptr, ptr }
%class.anon.61 = type { ptr, ptr, ptr, i64, ptr, i64, i32, i64, i64, i64, ptr, i32, i32, i64, i32, i32, i64, i32, i32 }

; Function Attrs: mustprogress nounwind uwtable
define hidden void @_ZN11OpenImageIO6v3_1_09TIFFInput18invert_photometricEiPv(ptr noundef nonnull align 8 dereferenceable(384) %0, i32 noundef %1, ptr noundef %2) #7 align 2 {
  %4 = alloca ptr, align 8
  %5 = alloca i32, align 4
  %6 = alloca ptr, align 8
  %7 = alloca ptr, align 8
  %8 = alloca i32, align 4
  store ptr %0, ptr %4, align 8, !tbaa !24
  store i32 %1, ptr %5, align 4, !tbaa !22
  store ptr %2, ptr %6, align 8, !tbaa !128
  %9 = load ptr, ptr %4, align 8
  %10 = getelementptr inbounds nuw %"class.OpenImageIO::v3_1_0::ImageInput", ptr %9, i32 0, i32 1
  %11 = getelementptr inbounds nuw %"class.OpenImageIO::v3_1_0::ImageSpec", ptr %10, i32 0, i32 16
  %12 = getelementptr inbounds nuw %"struct.OpenImageIO::v3_1_0::TypeDesc", ptr %11, i32 0, i32 0
  %13 = load i8, ptr %12, align 8, !tbaa !277
  %14 = zext i8 %13 to i32
  switch i32 %14, label %39 [
    i32 2, label %15
  ]

15:                                               ; preds = %3
  call void @llvm.lifetime.start.p0(i64 8, ptr %7) #3
  %16 = load ptr, ptr %6, align 8, !tbaa !128
  store ptr %16, ptr %7, align 8, !tbaa !18
  call void @llvm.lifetime.start.p0(i64 4, ptr %8) #3
  store i32 0, ptr %8, align 4, !tbaa !22
  br label %17

17:                                               ; preds = %35, %15
  %18 = load i32, ptr %8, align 4, !tbaa !22
  %19 = load i32, ptr %5, align 4, !tbaa !22
  %20 = icmp slt i32 %18, %19
  br i1 %20, label %22, label %21

21:                                               ; preds = %17
  call void @llvm.lifetime.end.p0(i64 4, ptr %8) #3
  br label %38

22:                                               ; preds = %17
  %23 = load ptr, ptr %7, align 8, !tbaa !18
  %24 = load i32, ptr %8, align 4, !tbaa !22
  %25 = sext i32 %24 to i64
  %26 = getelementptr inbounds i8, ptr %23, i64 %25
  %27 = load i8, ptr %26, align 1, !tbaa !137
  %28 = zext i8 %27 to i32
  %29 = sub nsw i32 255, %28
  %30 = trunc i32 %29 to i8
  %31 = load ptr, ptr %7, align 8, !tbaa !18
  %32 = load i32, ptr %8, align 4, !tbaa !22
  %33 = sext i32 %32 to i64
  %34 = getelementptr inbounds i8, ptr %31, i64 %33
  store i8 %30, ptr %34, align 1, !tbaa !137
  br label %35

35:                                               ; preds = %22
  %36 = load i32, ptr %8, align 4, !tbaa !22
  %37 = add nsw i32 %36, 1
  store i32 %37, ptr %8, align 4, !tbaa !22
  br label %17, !llvm.loop !278

38:                                               ; preds = %21
  call void @llvm.lifetime.end.p0(i64 8, ptr %7) #3
  br label %40

39:                                               ; preds = %3
  br label %40

40:                                               ; preds = %39, %38
  ret void
}

; Function Attrs: inlinehint mustprogress uwtable
define internal void @"_ZZN11OpenImageIO6v3_1_09TIFFInput17read_native_tilesEiiiiiiiiPvENK3$_0clEi"(ptr noundef nonnull align 8 dereferenceable(128) %0, i32 noundef %1) #13 align 2 {
  %3 = alloca ptr, align 8
  %4 = alloca i32, align 4
  store ptr %0, ptr %3, align 8, !tbaa !128
  store i32 %1, ptr %4, align 4, !tbaa !22
  %5 = load ptr, ptr %3, align 8
  %6 = getelementptr inbounds nuw %class.anon.61, ptr %5, i32 0, i32 1
  %7 = load ptr, ptr %6, align 8, !tbaa !328
  %8 = getelementptr inbounds nuw %class.anon.61, ptr %5, i32 0, i32 2
  %9 = load ptr, ptr %8, align 8, !tbaa !330
  %10 = getelementptr inbounds nuw %class.anon.61, ptr %5, i32 0, i32 3
  %11 = load i64, ptr %10, align 8, !tbaa !331
  %12 = getelementptr inbounds nuw %class.anon.61, ptr %5, i32 0, i32 4
  %13 = load ptr, ptr %12, align 8, !tbaa !332
  %14 = getelementptr inbounds nuw %class.anon.61, ptr %5, i32 0, i32 5
  %15 = load i64, ptr %14, align 8, !tbaa !333
  %16 = getelementptr inbounds nuw %class.anon.61, ptr %5, i32 0, i32 1
  %17 = load ptr, ptr %16, align 8, !tbaa !328
  %18 = getelementptr inbounds nuw %"class.OpenImageIO::v3_1_0::ImageInput", ptr %17, i32 0, i32 1
  %19 = getelementptr inbounds nuw %"class.OpenImageIO::v3_1_0::ImageSpec", ptr %18, i32 0, i32 15
  %20 = load i32, ptr %19, align 4, !tbaa !141
  %21 = getelementptr inbounds nuw %class.anon.61, ptr %5, i32 0, i32 1
  %22 = load ptr, ptr %21, align 8, !tbaa !328
  %23 = getelementptr inbounds nuw %"class.OpenImageIO::v3_1_0::ImageInput", ptr %22, i32 0, i32 1
  %24 = getelementptr inbounds nuw %"class.OpenImageIO::v3_1_0::ImageSpec", ptr %23, i32 0, i32 12
  %25 = load i32, ptr %24, align 8, !tbaa !153
  %26 = getelementptr inbounds nuw %class.anon.61, ptr %5, i32 0, i32 1
  %27 = load ptr, ptr %26, align 8, !tbaa !328
  %28 = getelementptr inbounds nuw %"class.OpenImageIO::v3_1_0::ImageInput", ptr %27, i32 0, i32 1
  %29 = getelementptr inbounds nuw %"class.OpenImageIO::v3_1_0::ImageSpec", ptr %28, i32 0, i32 13
  %30 = load i32, ptr %29, align 4, !tbaa !154
  %31 = getelementptr inbounds nuw %class.anon.61, ptr %5, i32 0, i32 1
  %32 = load ptr, ptr %31, align 8, !tbaa !328
  %33 = getelementptr inbounds nuw %"class.OpenImageIO::v3_1_0::ImageInput", ptr %32, i32 0, i32 1
  %34 = getelementptr inbounds nuw %"class.OpenImageIO::v3_1_0::ImageSpec", ptr %33, i32 0, i32 14
  %35 = load i32, ptr %34, align 8, !tbaa !155
  %36 = mul nsw i32 %30, %35
  %37 = getelementptr inbounds nuw %class.anon.61, ptr %5, i32 0, i32 0
  %38 = load ptr, ptr %37, align 8, !tbaa !1526
  call void @_ZN11OpenImageIO6v3_1_09TIFFInput20uncompress_one_stripEPKvmPvmiiiPb(ptr noundef nonnull align 8 dereferenceable(384) %7, ptr noundef %9, i64 noundef %11, ptr noundef %13, i64 noundef %15, i32 noundef %20, i32 noundef %25, i32 noundef %36, ptr noundef %38)
  %39 = getelementptr inbounds nuw %class.anon.61, ptr %5, i32 0, i32 1
  %40 = load ptr, ptr %39, align 8, !tbaa !328
  %41 = getelementptr inbounds nuw %"class.OpenImageIO::v3_1_0::TIFFInput", ptr %40, i32 0, i32 19
  %42 = load i16, ptr %41, align 4, !tbaa !167
  %43 = zext i16 %42 to i32
  %44 = icmp eq i32 %43, 0
  br i1 %44, label %45, label %52

45:                                               ; preds = %2
  %46 = getelementptr inbounds nuw %class.anon.61, ptr %5, i32 0, i32 1
  %47 = load ptr, ptr %46, align 8, !tbaa !328
  %48 = getelementptr inbounds nuw %class.anon.61, ptr %5, i32 0, i32 6
  %49 = load i32, ptr %48, align 8, !tbaa !334
  %50 = getelementptr inbounds nuw %class.anon.61, ptr %5, i32 0, i32 4
  %51 = load ptr, ptr %50, align 8, !tbaa !332
  call void @_ZN11OpenImageIO6v3_1_09TIFFInput18invert_photometricEiPv(ptr noundef nonnull align 8 dereferenceable(384) %47, i32 noundef %49, ptr noundef %51)
  br label %52

52:                                               ; preds = %45, %2
  %53 = getelementptr inbounds nuw %class.anon.61, ptr %5, i32 0, i32 1
  %54 = load ptr, ptr %53, align 8, !tbaa !328
  %55 = getelementptr inbounds nuw %"class.OpenImageIO::v3_1_0::ImageInput", ptr %54, i32 0, i32 1
  %56 = getelementptr inbounds nuw %"class.OpenImageIO::v3_1_0::ImageSpec", ptr %55, i32 0, i32 15
  %57 = load i32, ptr %56, align 4, !tbaa !141
  %58 = getelementptr inbounds nuw %class.anon.61, ptr %5, i32 0, i32 1
  %59 = load ptr, ptr %58, align 8, !tbaa !328
  %60 = getelementptr inbounds nuw %"class.OpenImageIO::v3_1_0::ImageInput", ptr %59, i32 0, i32 1
  %61 = getelementptr inbounds nuw %"class.OpenImageIO::v3_1_0::ImageSpec", ptr %60, i32 0, i32 12
  %62 = load i32, ptr %61, align 8, !tbaa !153
  %63 = getelementptr inbounds nuw %class.anon.61, ptr %5, i32 0, i32 1
  %64 = load ptr, ptr %63, align 8, !tbaa !328
  %65 = getelementptr inbounds nuw %"class.OpenImageIO::v3_1_0::ImageInput", ptr %64, i32 0, i32 1
  %66 = getelementptr inbounds nuw %"class.OpenImageIO::v3_1_0::ImageSpec", ptr %65, i32 0, i32 13
  %67 = load i32, ptr %66, align 4, !tbaa !154
  %68 = getelementptr inbounds nuw %class.anon.61, ptr %5, i32 0, i32 1
  %69 = load ptr, ptr %68, align 8, !tbaa !328
  %70 = getelementptr inbounds nuw %"class.OpenImageIO::v3_1_0::ImageInput", ptr %69, i32 0, i32 1
  %71 = getelementptr inbounds nuw %"class.OpenImageIO::v3_1_0::ImageSpec", ptr %70, i32 0, i32 14
  %72 = load i32, ptr %71, align 8, !tbaa !155
  %73 = getelementptr inbounds nuw %class.anon.61, ptr %5, i32 0, i32 4
  %74 = load ptr, ptr %73, align 8, !tbaa !332
  %75 = getelementptr inbounds nuw %class.anon.61, ptr %5, i32 0, i32 7
  %76 = load i64, ptr %75, align 8, !tbaa !335
  %77 = getelementptr inbounds nuw %class.anon.61, ptr %5, i32 0, i32 7
  %78 = load i64, ptr %77, align 8, !tbaa !335
  %79 = getelementptr inbounds nuw %class.anon.61, ptr %5, i32 0, i32 8
  %80 = load i64, ptr %79, align 8, !tbaa !336
  %81 = getelementptr inbounds nuw %class.anon.61, ptr %5, i32 0, i32 9
  %82 = load i64, ptr %81, align 8, !tbaa !337
  %83 = getelementptr inbounds nuw %class.anon.61, ptr %5, i32 0, i32 10
  %84 = load ptr, ptr %83, align 8, !tbaa !338
  %85 = getelementptr inbounds nuw %class.anon.61, ptr %5, i32 0, i32 11
  %86 = load i32, ptr %85, align 8, !tbaa !339
  %87 = getelementptr inbounds nuw %class.anon.61, ptr %5, i32 0, i32 12
  %88 = load i32, ptr %87, align 4, !tbaa !340
  %89 = sub nsw i32 %86, %88
  %90 = sext i32 %89 to i64
  %91 = getelementptr inbounds nuw %class.anon.61, ptr %5, i32 0, i32 13
  %92 = load i64, ptr %91, align 8, !tbaa !341
  %93 = mul nsw i64 %90, %92
  %94 = getelementptr inbounds i8, ptr %84, i64 %93
  %95 = getelementptr inbounds nuw %class.anon.61, ptr %5, i32 0, i32 14
  %96 = load i32, ptr %95, align 8, !tbaa !342
  %97 = getelementptr inbounds nuw %class.anon.61, ptr %5, i32 0, i32 15
  %98 = load i32, ptr %97, align 4, !tbaa !343
  %99 = sub nsw i32 %96, %98
  %100 = sext i32 %99 to i64
  %101 = getelementptr inbounds nuw %class.anon.61, ptr %5, i32 0, i32 16
  %102 = load i64, ptr %101, align 8, !tbaa !344
  %103 = mul nsw i64 %100, %102
  %104 = getelementptr inbounds i8, ptr %94, i64 %103
  %105 = getelementptr inbounds nuw %class.anon.61, ptr %5, i32 0, i32 17
  %106 = load i32, ptr %105, align 8, !tbaa !345
  %107 = getelementptr inbounds nuw %class.anon.61, ptr %5, i32 0, i32 18
  %108 = load i32, ptr %107, align 4, !tbaa !346
  %109 = sub nsw i32 %106, %108
  %110 = sext i32 %109 to i64
  %111 = getelementptr inbounds nuw %class.anon.61, ptr %5, i32 0, i32 7
  %112 = load i64, ptr %111, align 8, !tbaa !335
  %113 = mul nsw i64 %110, %112
  %114 = getelementptr inbounds i8, ptr %104, i64 %113
  %115 = getelementptr inbounds nuw %class.anon.61, ptr %5, i32 0, i32 7
  %116 = load i64, ptr %115, align 8, !tbaa !335
  %117 = getelementptr inbounds nuw %class.anon.61, ptr %5, i32 0, i32 16
  %118 = load i64, ptr %117, align 8, !tbaa !344
  %119 = getelementptr inbounds nuw %class.anon.61, ptr %5, i32 0, i32 13
  %120 = load i64, ptr %119, align 8, !tbaa !341
  %121 = call noundef zeroext i1 @_ZN11OpenImageIO6v3_1_010copy_imageEiiiiPKvllllPvlll(i32 noundef %57, i32 noundef %62, i32 noundef %67, i32 noundef %72, ptr noundef %74, i64 noundef %76, i64 noundef %78, i64 noundef %80, i64 noundef %82, ptr noundef %114, i64 noundef %116, i64 noundef %118, i64 noundef %120)
  ret void
}

; Function Attrs: mustprogress uwtable
define internal void @"_ZSt13__invoke_implIvRZN11OpenImageIO6v3_1_09TIFFInput17read_native_tilesEiiiiiiiiPvE3$_0JiEET_St14__invoke_otherOT0_DpOT1_"(ptr noundef nonnull align 8 dereferenceable(128) %0, ptr noundef nonnull align 4 dereferenceable(4) %1) #6 {
  %3 = alloca ptr, align 8
  %4 = alloca ptr, align 8
  store ptr %0, ptr %3, align 8, !tbaa !128
  store ptr %1, ptr %4, align 8, !tbaa !238
  %5 = load ptr, ptr %3, align 8, !tbaa !128
  %6 = load ptr, ptr %4, align 8, !tbaa !238
  %7 = load i32, ptr %6, align 4, !tbaa !22
  call void @"_ZZN11OpenImageIO6v3_1_09TIFFInput17read_native_tilesEiiiiiiiiPvENK3$_0clEi"(ptr noundef nonnull align 8 dereferenceable(128) %5, i32 noundef %7)
  ret void
}

; Function Attrs: mustprogress uwtable
define internal void @"_ZSt10__invoke_rIvRZN11OpenImageIO6v3_1_09TIFFInput17read_native_tilesEiiiiiiiiPvE3$_0JiEENSt9enable_ifIX16is_invocable_r_vIT_T0_DpT1_EES7_E4typeEOS8_DpOS9_"(ptr noundef nonnull align 8 dereferenceable(128) %0, ptr noundef nonnull align 4 dereferenceable(4) %1) #6 {
  %3 = alloca ptr, align 8
  %4 = alloca ptr, align 8
  store ptr %0, ptr %3, align 8, !tbaa !128
  store ptr %1, ptr %4, align 8, !tbaa !238
  %5 = load ptr, ptr %3, align 8, !tbaa !128
  %6 = load ptr, ptr %4, align 8, !tbaa !238
  call void @"_ZSt13__invoke_implIvRZN11OpenImageIO6v3_1_09TIFFInput17read_native_tilesEiiiiiiiiPvE3$_0JiEET_St14__invoke_otherOT0_DpOT1_"(ptr noundef nonnull align 8 dereferenceable(128) %5, ptr noundef nonnull align 4 dereferenceable(4) %6)
  ret void
}