; Function Attrs: mustprogress uwtable
define internal fastcc void @"_ZSt10__invoke_rIvRZN11OpenImageIO6v3_1_09TIFFInput17read_native_tilesEiiiiiiiiPvE3$_0JiEENSt9enable_ifIX16is_invocable_r_vIT_T0_DpT1_EES7_E4typeEOS8_DpOS9_"(ptr noundef nonnull readonly align 8 captures(none) dereferenceable(128) %0) unnamed_addr #5 {
  %2 = getelementptr inbounds nuw i8, ptr %0, i64 8
  %3 = load ptr, ptr %2, align 8, !tbaa !331
  %4 = getelementptr inbounds nuw i8, ptr %0, i64 16
  %5 = load ptr, ptr %4, align 8, !tbaa !333
  %6 = getelementptr inbounds nuw i8, ptr %0, i64 24
  %7 = load i64, ptr %6, align 8, !tbaa !334
  %8 = getelementptr inbounds nuw i8, ptr %0, i64 32
  %9 = load ptr, ptr %8, align 8, !tbaa !335
  %10 = getelementptr inbounds nuw i8, ptr %0, i64 40
  %11 = load i64, ptr %10, align 8, !tbaa !336
  %12 = getelementptr inbounds nuw i8, ptr %3, i64 68
  %13 = load i32, ptr %12, align 4, !tbaa !134
  %14 = getelementptr inbounds nuw i8, ptr %3, i64 56
  %15 = load i32, ptr %14, align 8, !tbaa !146
  %16 = getelementptr inbounds nuw i8, ptr %3, i64 60
  %17 = load i32, ptr %16, align 4, !tbaa !147
  %18 = getelementptr inbounds nuw i8, ptr %3, i64 64
  %19 = load i32, ptr %18, align 8, !tbaa !148
  %20 = mul nsw i32 %19, %17
  %21 = load ptr, ptr %0, align 8, !tbaa !992
  tail call void @_ZN11OpenImageIO6v3_1_09TIFFInput20uncompress_one_stripEPKvmPvmiiiPb(ptr noundef nonnull align 8 dereferenceable(384) %3, ptr noundef %5, i64 noundef %7, ptr noundef %9, i64 noundef %11, i32 noundef %13, i32 noundef %15, i32 noundef %20, ptr noundef %21)
  %22 = load ptr, ptr %2, align 8, !tbaa !331
  %23 = getelementptr inbounds nuw i8, ptr %22, i64 300
  %24 = load i16, ptr %23, align 4, !tbaa !156
  %25 = icmp eq i16 %24, 0
  %.pre2.i.i = load ptr, ptr %8, align 8, !tbaa !335
  br i1 %25, label %26, label %"_ZSt13__invoke_implIvRZN11OpenImageIO6v3_1_09TIFFInput17read_native_tilesEiiiiiiiiPvE3$_0JiEET_St14__invoke_otherOT0_DpOT1_.exit"

26:                                               ; preds = %1
  %27 = getelementptr inbounds nuw i8, ptr %0, i64 48
  %28 = load i32, ptr %27, align 8, !tbaa !337
  %29 = getelementptr inbounds nuw i8, ptr %22, i64 72
  %30 = load i8, ptr %29, align 8, !tbaa !228
  %cond.i.i.i = icmp eq i8 %30, 2
  %31 = icmp sgt i32 %28, 0
  %or.cond.i.i.i = and i1 %31, %cond.i.i.i
  br i1 %or.cond.i.i.i, label %.lr.ph.preheader.i.i.i, label %"_ZSt13__invoke_implIvRZN11OpenImageIO6v3_1_09TIFFInput17read_native_tilesEiiiiiiiiPvE3$_0JiEET_St14__invoke_otherOT0_DpOT1_.exit"

.lr.ph.preheader.i.i.i:                           ; preds = %26
  %wide.trip.count.i.i.i = zext nneg i32 %28 to i64
  br label %.lr.ph.i.i.i

.lr.ph.i.i.i:                                     ; preds = %.lr.ph.i.i.i, %.lr.ph.preheader.i.i.i
  %indvars.iv.i.i.i = phi i64 [ 0, %.lr.ph.preheader.i.i.i ], [ %indvars.iv.next.i.i.i, %.lr.ph.i.i.i ]
  %32 = getelementptr inbounds nuw i8, ptr %.pre2.i.i, i64 %indvars.iv.i.i.i
  %33 = load i8, ptr %32, align 1, !tbaa !13
  %34 = xor i8 %33, -1
  store i8 %34, ptr %32, align 1, !tbaa !13
  %indvars.iv.next.i.i.i = add nuw nsw i64 %indvars.iv.i.i.i, 1
  %exitcond.not.i.i.i = icmp eq i64 %indvars.iv.next.i.i.i, %wide.trip.count.i.i.i
  br i1 %exitcond.not.i.i.i, label %_ZN11OpenImageIO6v3_1_09TIFFInput18invert_photometricEiPv.exit.loopexit.i.i, label %.lr.ph.i.i.i, !llvm.loop !229

_ZN11OpenImageIO6v3_1_09TIFFInput18invert_photometricEiPv.exit.loopexit.i.i: ; preds = %.lr.ph.i.i.i
  %.pre.i.i = load ptr, ptr %2, align 8, !tbaa !331
  %.pre1.i.i = load ptr, ptr %8, align 8, !tbaa !335
  br label %"_ZSt13__invoke_implIvRZN11OpenImageIO6v3_1_09TIFFInput17read_native_tilesEiiiiiiiiPvE3$_0JiEET_St14__invoke_otherOT0_DpOT1_.exit"

"_ZSt13__invoke_implIvRZN11OpenImageIO6v3_1_09TIFFInput17read_native_tilesEiiiiiiiiPvE3$_0JiEET_St14__invoke_otherOT0_DpOT1_.exit": ; preds = %1, %26, %_ZN11OpenImageIO6v3_1_09TIFFInput18invert_photometricEiPv.exit.loopexit.i.i
  %35 = phi ptr [ %.pre1.i.i, %_ZN11OpenImageIO6v3_1_09TIFFInput18invert_photometricEiPv.exit.loopexit.i.i ], [ %.pre2.i.i, %26 ], [ %.pre2.i.i, %1 ]
  %36 = phi ptr [ %.pre.i.i, %_ZN11OpenImageIO6v3_1_09TIFFInput18invert_photometricEiPv.exit.loopexit.i.i ], [ %22, %26 ], [ %22, %1 ]
  %37 = getelementptr inbounds nuw i8, ptr %36, i64 68
  %38 = load i32, ptr %37, align 4, !tbaa !134
  %39 = getelementptr inbounds nuw i8, ptr %36, i64 56
  %40 = load i32, ptr %39, align 8, !tbaa !146
  %41 = getelementptr inbounds nuw i8, ptr %36, i64 60
  %42 = load i32, ptr %41, align 4, !tbaa !147
  %43 = getelementptr inbounds nuw i8, ptr %36, i64 64
  %44 = load i32, ptr %43, align 8, !tbaa !148
  %45 = getelementptr inbounds nuw i8, ptr %0, i64 56
  %46 = load i64, ptr %45, align 8, !tbaa !338
  %47 = getelementptr inbounds nuw i8, ptr %0, i64 64
  %48 = load i64, ptr %47, align 8, !tbaa !339
  %49 = getelementptr inbounds nuw i8, ptr %0, i64 72
  %50 = load i64, ptr %49, align 8, !tbaa !340
  %51 = getelementptr inbounds nuw i8, ptr %0, i64 80
  %52 = load ptr, ptr %51, align 8, !tbaa !341
  %53 = getelementptr inbounds nuw i8, ptr %0, i64 88
  %54 = load i32, ptr %53, align 8, !tbaa !342
  %55 = getelementptr inbounds nuw i8, ptr %0, i64 92
  %56 = load i32, ptr %55, align 4, !tbaa !343
  %57 = sub nsw i32 %54, %56
  %58 = sext i32 %57 to i64
  %59 = getelementptr inbounds nuw i8, ptr %0, i64 96
  %60 = load i64, ptr %59, align 8, !tbaa !344
  %61 = mul nsw i64 %60, %58
  %62 = getelementptr inbounds i8, ptr %52, i64 %61
  %63 = getelementptr inbounds nuw i8, ptr %0, i64 104
  %64 = load i32, ptr %63, align 8, !tbaa !345
  %65 = getelementptr inbounds nuw i8, ptr %0, i64 108
  %66 = load i32, ptr %65, align 4, !tbaa !346
  %67 = sub nsw i32 %64, %66
  %68 = sext i32 %67 to i64
  %69 = getelementptr inbounds nuw i8, ptr %0, i64 112
  %70 = load i64, ptr %69, align 8, !tbaa !347
  %71 = mul nsw i64 %70, %68
  %72 = getelementptr inbounds i8, ptr %62, i64 %71
  %73 = getelementptr inbounds nuw i8, ptr %0, i64 120
  %74 = load i32, ptr %73, align 8, !tbaa !348
  %75 = getelementptr inbounds nuw i8, ptr %0, i64 124
  %76 = load i32, ptr %75, align 4, !tbaa !349
  %77 = sub nsw i32 %74, %76
  %78 = sext i32 %77 to i64
  %79 = mul nsw i64 %46, %78
  %80 = getelementptr inbounds i8, ptr %72, i64 %79
  %81 = tail call noundef zeroext i1 @_ZN11OpenImageIO6v3_1_010copy_imageEiiiiPKvllllPvlll(i32 noundef %38, i32 noundef %40, i32 noundef %42, i32 noundef %44, ptr noundef %35, i64 noundef %46, i64 noundef %46, i64 noundef %48, i64 noundef %50, ptr noundef %80, i64 noundef %46, i64 noundef %70, i64 noundef %60)
  ret void
}